target datalayout = "e-m:e-p270:32:32-p271:32:32-p272:64:64-i64:64-i128:128-f80:128-n8:16:32:64-S128"
target triple = "x86_64-pc-linux-gnu"

%struct._object = type { %union.anon, ptr }
%union.anon = type { i64 }
%struct.SemLockObject = type { %struct._object, ptr, i64, i32, i32, i32, ptr }
%struct._typeobject = type { %struct.PyVarObject, ptr, i64, i64, ptr, i64, ptr, ptr, ptr, ptr, ptr, ptr, ptr, ptr, ptr, ptr, ptr, ptr, ptr, i64, ptr, ptr, ptr, ptr, i64, ptr, ptr, ptr, ptr, ptr, ptr, ptr, ptr, ptr, i64, ptr, ptr, ptr, ptr, ptr, ptr, ptr, ptr, ptr, ptr, ptr, i32, ptr, ptr, i8, i16 }
%struct.PyVarObject = type { %struct._object, i64 }

@PyExc_OSError = external global ptr, align 8
@.str.18 = private unnamed_addr constant [14 x i8] c"kiiz:_rebuild\00", align 1

; Function Attrs: nounwind uwtable
define internal ptr @newsemlockobject(ptr noundef %0, ptr noundef %1, i32 noundef %2, i32 noundef %3, ptr noundef %4) #0 {
  %6 = alloca ptr, align 8
  %7 = alloca ptr, align 8
  %8 = alloca ptr, align 8
  %9 = alloca i32, align 4
  %10 = alloca i32, align 4
  %11 = alloca ptr, align 8
  %12 = alloca ptr, align 8
  %13 = alloca i32, align 4
  store ptr %0, ptr %7, align 8, !tbaa !11
  store ptr %1, ptr %8, align 8, !tbaa !10
  store i32 %2, ptr %9, align 4, !tbaa !29
  store i32 %3, ptr %10, align 4, !tbaa !29
  store ptr %4, ptr %11, align 8, !tbaa !3
  call void @llvm.lifetime.start.p0(i64 8, ptr %12) #10
  %14 = load ptr, ptr %7, align 8, !tbaa !11
  %15 = getelementptr inbounds nuw %struct._typeobject, ptr %14, i32 0, i32 36
  %16 = load ptr, ptr %15, align 8, !tbaa !50
  %17 = load ptr, ptr %7, align 8, !tbaa !11
  %18 = call ptr %16(ptr noundef %17, i64 noundef 0)
  store ptr %18, ptr %12, align 8, !tbaa !10
  %19 = load ptr, ptr %12, align 8, !tbaa !10
  %20 = icmp ne ptr %19, null
  br i1 %20, label %22, label %21

21:                                               ; preds = %5
  store ptr null, ptr %6, align 8
  store i32 1, ptr %13, align 4
  br label %40

22:                                               ; preds = %5
  %23 = load ptr, ptr %8, align 8, !tbaa !10
  %24 = load ptr, ptr %12, align 8, !tbaa !10
  %25 = getelementptr inbounds nuw %struct.SemLockObject, ptr %24, i32 0, i32 1
  store ptr %23, ptr %25, align 8, !tbaa !13
  %26 = load i32, ptr %9, align 4, !tbaa !29
  %27 = load ptr, ptr %12, align 8, !tbaa !10
  %28 = getelementptr inbounds nuw %struct.SemLockObject, ptr %27, i32 0, i32 5
  store i32 %26, ptr %28, align 8, !tbaa !32
  %29 = load ptr, ptr %12, align 8, !tbaa !10
  %30 = getelementptr inbounds nuw %struct.SemLockObject, ptr %29, i32 0, i32 3
  store i32 0, ptr %30, align 8, !tbaa !33
  %31 = load ptr, ptr %12, align 8, !tbaa !10
  %32 = getelementptr inbounds nuw %struct.SemLockObject, ptr %31, i32 0, i32 2
  store i64 0, ptr %32, align 8, !tbaa !34
  %33 = load i32, ptr %10, align 4, !tbaa !29
  %34 = load ptr, ptr %12, align 8, !tbaa !10
  %35 = getelementptr inbounds nuw %struct.SemLockObject, ptr %34, i32 0, i32 4
  store i32 %33, ptr %35, align 4, !tbaa !49
  %36 = load ptr, ptr %11, align 8, !tbaa !3
  %37 = load ptr, ptr %12, align 8, !tbaa !10
  %38 = getelementptr inbounds nuw %struct.SemLockObject, ptr %37, i32 0, i32 6
  store ptr %36, ptr %38, align 8, !tbaa !18
  %39 = load ptr, ptr %12, align 8, !tbaa !10
  store ptr %39, ptr %6, align 8
  store i32 1, ptr %13, align 4
  br label %40

40:                                               ; preds = %22, %21
  call void @llvm.lifetime.end.p0(i64 8, ptr %12) #10
  %41 = load ptr, ptr %6, align 8
  ret ptr %41
}

; Function Attrs: nounwind uwtable
define internal ptr @_multiprocessing_SemLock__rebuild_impl(ptr noundef %0, ptr noundef %1, i32 noundef %2, i32 noundef %3, ptr noundef %4) #0 {
  %6 = alloca ptr, align 8
  %7 = alloca ptr, align 8
  %8 = alloca ptr, align 8
  %9 = alloca i32, align 4
  %10 = alloca i32, align 4
  %11 = alloca ptr, align 8
  %12 = alloca ptr, align 8
  %13 = alloca i32, align 4
  store ptr %0, ptr %7, align 8, !tbaa !11
  store ptr %1, ptr %8, align 8, !tbaa !10
  store i32 %2, ptr %9, align 4, !tbaa !29
  store i32 %3, ptr %10, align 4, !tbaa !29
  store ptr %4, ptr %11, align 8, !tbaa !3
  call void @llvm.lifetime.start.p0(i64 8, ptr %12) #10
  store ptr null, ptr %12, align 8, !tbaa !3
  %14 = load ptr, ptr %11, align 8, !tbaa !3
  %15 = icmp ne ptr %14, null
  br i1 %15, label %16, label %29

16:                                               ; preds = %5
  %17 = load ptr, ptr %11, align 8, !tbaa !3
  %18 = call i64 @strlen(ptr noundef %17) #11
  %19 = add i64 %18, 1
  %20 = call ptr @PyMem_Malloc(i64 noundef %19)
  store ptr %20, ptr %12, align 8, !tbaa !3
  %21 = load ptr, ptr %12, align 8, !tbaa !3
  %22 = icmp eq ptr %21, null
  br i1 %22, label %23, label %25

23:                                               ; preds = %16
  %24 = call ptr @PyErr_NoMemory()
  store ptr %24, ptr %6, align 8
  store i32 1, ptr %13, align 4
  br label %49

25:                                               ; preds = %16
  %26 = load ptr, ptr %12, align 8, !tbaa !3
  %27 = load ptr, ptr %11, align 8, !tbaa !3
  %28 = call ptr @strcpy(ptr noundef %26, ptr noundef %27) #10
  br label %29

29:                                               ; preds = %25, %5
  %30 = load ptr, ptr %11, align 8, !tbaa !3
  %31 = icmp ne ptr %30, null
  br i1 %31, label %32, label %42

32:                                               ; preds = %29
  %33 = load ptr, ptr %11, align 8, !tbaa !3
  %34 = call ptr (ptr, i32, ...) @sem_open(ptr noundef %33, i32 noundef 0) #10
  store ptr %34, ptr %8, align 8, !tbaa !10
  %35 = load ptr, ptr %8, align 8, !tbaa !10
  %36 = icmp eq ptr %35, null
  br i1 %36, label %37, label %41

37:                                               ; preds = %32
  %38 = load ptr, ptr @PyExc_OSError, align 8, !tbaa !8
  %39 = call ptr @PyErr_SetFromErrno(ptr noundef %38)
  %40 = load ptr, ptr %12, align 8, !tbaa !3
  call void @PyMem_Free(ptr noundef %40)
  store ptr null, ptr %6, align 8
  store i32 1, ptr %13, align 4
  br label %49

41:                                               ; preds = %32
  br label %42

42:                                               ; preds = %41, %29
  %43 = load ptr, ptr %7, align 8, !tbaa !11
  %44 = load ptr, ptr %8, align 8, !tbaa !10
  %45 = load i32, ptr %9, align 4, !tbaa !29
  %46 = load i32, ptr %10, align 4, !tbaa !29
  %47 = load ptr, ptr %12, align 8, !tbaa !3
  %48 = call ptr @newsemlockobject(ptr noundef %43, ptr noundef %44, i32 noundef %45, i32 noundef %46, ptr noundef %47)
  store ptr %48, ptr %6, align 8
  store i32 1, ptr %13, align 4
  br label %49

49:                                               ; preds = %42, %37, %23
  call void @llvm.lifetime.end.p0(i64 8, ptr %12) #10
  %50 = load ptr, ptr %6, align 8
  ret ptr %50
}

; Function Attrs: nounwind uwtable
define internal ptr @_multiprocessing_SemLock__rebuild(ptr noundef %0, ptr noundef %1, i64 noundef %2) #0 {
  %4 = alloca ptr, align 8
  %5 = alloca ptr, align 8
  %6 = alloca i64, align 8
  %7 = alloca ptr, align 8
  %8 = alloca ptr, align 8
  %9 = alloca i32, align 4
  %10 = alloca i32, align 4
  %11 = alloca ptr, align 8
  store ptr %0, ptr %4, align 8, !tbaa !11
  store ptr %1, ptr %5, align 8, !tbaa !27
  store i64 %2, ptr %6, align 8, !tbaa !26
  call void @llvm.lifetime.start.p0(i64 8, ptr %7) #10
  store ptr null, ptr %7, align 8, !tbaa !8
  call void @llvm.lifetime.start.p0(i64 8, ptr %8) #10
  call void @llvm.lifetime.start.p0(i64 4, ptr %9) #10
  call void @llvm.lifetime.start.p0(i64 4, ptr %10) #10
  call void @llvm.lifetime.start.p0(i64 8, ptr %11) #10
  %12 = load ptr, ptr %5, align 8, !tbaa !27
  %13 = load i64, ptr %6, align 8, !tbaa !26
  %14 = call i32 (ptr, i64, ptr, ...) @_PyArg_ParseStack(ptr noundef %12, i64 noundef %13, ptr noundef @.str.18, ptr noundef %8, ptr noundef %9, ptr noundef %10, ptr noundef %11)
  %15 = icmp ne i32 %14, 0
  br i1 %15, label %17, label %16

16:                                               ; preds = %3
  br label %24

17:                                               ; preds = %3
  %18 = load ptr, ptr %4, align 8, !tbaa !11
  %19 = load ptr, ptr %8, align 8, !tbaa !10
  %20 = load i32, ptr %9, align 4, !tbaa !29
  %21 = load i32, ptr %10, align 4, !tbaa !29
  %22 = load ptr, ptr %11, align 8, !tbaa !3
  %23 = call ptr @_multiprocessing_SemLock__rebuild_impl(ptr noundef %18, ptr noundef %19, i32 noundef %20, i32 noundef %21, ptr noundef %22)
  store ptr %23, ptr %7, align 8, !tbaa !8
  br label %24

24:                                               ; preds = %17, %16
  %25 = load ptr, ptr %7, align 8, !tbaa !8
  call void @llvm.lifetime.end.p0(i64 8, ptr %11) #10
  call void @llvm.lifetime.end.p0(i64 4, ptr %10) #10
  call void @llvm.lifetime.end.p0(i64 4, ptr %9) #10
  call void @llvm.lifetime.end.p0(i64 8, ptr %8) #10
  call void @llvm.lifetime.end.p0(i64 8, ptr %7) #10
  ret ptr %25
}