; Function Attrs: nounwind uwtable
define internal ptr @_multiprocessing_SemLock__rebuild(ptr noundef %0, ptr noundef %1, i64 noundef %2) #0 {
  %4 = alloca ptr, align 8
  %5 = alloca i32, align 4
  %6 = alloca i32, align 4
  %7 = alloca ptr, align 8
  call void @llvm.lifetime.start.p0(i64 8, ptr nonnull %4) #11
  call void @llvm.lifetime.start.p0(i64 4, ptr nonnull %5) #11
  call void @llvm.lifetime.start.p0(i64 4, ptr nonnull %6) #11
  call void @llvm.lifetime.start.p0(i64 8, ptr nonnull %7) #11
  %8 = call i32 (ptr, i64, ptr, ...) @_PyArg_ParseStack(ptr noundef %1, i64 noundef %2, ptr noundef nonnull @.str.18, ptr noundef nonnull %4, ptr noundef nonnull %5, ptr noundef nonnull %6, ptr noundef nonnull %7) #11
  %.not = icmp eq i32 %8, 0
  br i1 %.not, label %_multiprocessing_SemLock__rebuild_impl.exit, label %9

9:                                                ; preds = %3
  %10 = load ptr, ptr %4, align 8, !tbaa !34
  %11 = load i32, ptr %5, align 4, !tbaa !33
  %12 = load i32, ptr %6, align 4, !tbaa !33
  %13 = load ptr, ptr %7, align 8, !tbaa !35
  %.not.i = icmp eq ptr %13, null
  br i1 %.not.i, label %.thread.i, label %14

14:                                               ; preds = %9
  %15 = call i64 @strlen(ptr noundef nonnull dereferenceable(1) %13) #12
  %16 = add i64 %15, 1
  %17 = call ptr @PyMem_Malloc(i64 noundef %16) #11
  %18 = icmp eq ptr %17, null
  br i1 %18, label %19, label %21

19:                                               ; preds = %14
  %20 = call ptr @PyErr_NoMemory() #11
  br label %_multiprocessing_SemLock__rebuild_impl.exit

21:                                               ; preds = %14
  %22 = call ptr @strcpy(ptr noundef nonnull dereferenceable(1) %17, ptr noundef nonnull dereferenceable(1) %13) #11
  %23 = call ptr (ptr, i32, ...) @sem_open(ptr noundef nonnull %13, i32 noundef 0) #11
  %24 = icmp eq ptr %23, null
  br i1 %24, label %25, label %.thread.i

25:                                               ; preds = %21
  %26 = load ptr, ptr @PyExc_OSError, align 8, !tbaa !25
  %27 = call ptr @PyErr_SetFromErrno(ptr noundef %26) #11
  call void @PyMem_Free(ptr noundef nonnull %17) #11
  br label %_multiprocessing_SemLock__rebuild_impl.exit

.thread.i:                                        ; preds = %21, %9
  %.020.i = phi ptr [ %17, %21 ], [ null, %9 ]
  %.015.i = phi ptr [ %23, %21 ], [ %10, %9 ]
  %28 = getelementptr inbounds nuw i8, ptr %0, i64 304
  %29 = load ptr, ptr %28, align 8, !tbaa !28
  %30 = call ptr %29(ptr noundef %0, i64 noundef 0) #11
  %.not.i.i = icmp eq ptr %30, null
  br i1 %.not.i.i, label %_multiprocessing_SemLock__rebuild_impl.exit, label %31

31:                                               ; preds = %.thread.i
  %32 = getelementptr inbounds nuw i8, ptr %30, i64 16
  store ptr %.015.i, ptr %32, align 8, !tbaa !9
  %33 = getelementptr inbounds nuw i8, ptr %30, i64 40
  store i32 %11, ptr %33, align 8, !tbaa !29
  %34 = getelementptr inbounds nuw i8, ptr %30, i64 32
  store i32 0, ptr %34, align 8, !tbaa !30
  %35 = getelementptr inbounds nuw i8, ptr %30, i64 24
  store i64 0, ptr %35, align 8, !tbaa !31
  %36 = getelementptr inbounds nuw i8, ptr %30, i64 36
  store i32 %12, ptr %36, align 4, !tbaa !32
  %37 = getelementptr inbounds nuw i8, ptr %30, i64 48
  store ptr %.020.i, ptr %37, align 8, !tbaa !14
  br label %_multiprocessing_SemLock__rebuild_impl.exit

_multiprocessing_SemLock__rebuild_impl.exit:      ; preds = %31, %.thread.i, %25, %19, %3
  %.0 = phi ptr [ null, %3 ], [ %20, %19 ], [ null, %25 ], [ null, %.thread.i ], [ %30, %31 ]
  call void @llvm.lifetime.end.p0(i64 8, ptr nonnull %7) #11
  call void @llvm.lifetime.end.p0(i64 4, ptr nonnull %6) #11
  call void @llvm.lifetime.end.p0(i64 4, ptr nonnull %5) #11
  call void @llvm.lifetime.end.p0(i64 8, ptr nonnull %4) #11
  ret ptr %.0
}